; Function Attrs: mustprogress nounwind uwtable
define hidden { ptr, ptr } @_ZN19G1DirtyCardQueueSet13PausedBuffers8take_allEv(ptr noundef nonnull align 8 dereferenceable(128) %0) local_unnamed_addr #0 align 2 {
  %2 = load volatile ptr, ptr %0, align 8
  %.not = icmp eq ptr %2, null
  br i1 %.not, label %7, label %3

3:                                                ; preds = %1
  store volatile ptr null, ptr %0, align 8
  %4 = load volatile ptr, ptr %2, align 8
  %5 = getelementptr inbounds i8, ptr %2, i64 8
  %6 = load ptr, ptr %5, align 8
  store volatile ptr null, ptr %2, align 8
  store ptr null, ptr %5, align 8
  tail call void @_Z8FreeHeapPv(ptr noundef nonnull %2) #15
  br label %7

7:                                                ; preds = %3, %1
  %.sroa.0.0 = phi ptr [ null, %1 ], [ %4, %3 ]
  %.sroa.3.0 = phi ptr [ null, %1 ], [ %6, %3 ]
  %.fca.0.insert = insertvalue { ptr, ptr } poison, ptr %.sroa.0.0, 0
  %.fca.1.insert = insertvalue { ptr, ptr } %.fca.0.insert, ptr %.sroa.3.0, 1
  ret { ptr, ptr } %.fca.1.insert
}